; Function Attrs: nounwind uwtable
define noalias nonnull ptr @l_Lean_throwMaxRecDepthAt___at_Lean_Elab_Term_synthesizeSyntheticMVars_loop___spec__1(ptr noundef %0, ptr noundef readnone captures(none) %1, ptr noundef readnone captures(none) %2, ptr noundef readnone captures(none) %3, ptr noundef readnone captures(none) %4, ptr noundef readnone captures(none) %5, ptr noundef readnone captures(none) %6, ptr noundef %7) local_unnamed_addr #0 {
  %9 = load ptr, ptr @l_Lean_throwMaxRecDepthAt___at_Lean_Elab_Term_synthesizeSyntheticMVars_loop___spec__1___closed__6, align 8, !tbaa !10
  tail call void @lean_inc_heartbeat() #7
  %10 = tail call noalias ptr @mi_malloc_small(i64 noundef 24) #7
  %11 = icmp eq ptr %10, null
  br i1 %11, label %12, label %lean_alloc_ctor.exit

12:                                               ; preds = %8
  tail call void @lean_internal_panic_out_of_memory() #8
  unreachable

lean_alloc_ctor.exit:                             ; preds = %8
  %13 = getelementptr inbounds nuw i8, ptr %10, i64 4
  store i32 1, ptr %10, align 4, !tbaa !7
  store i32 131096, ptr %13, align 4
  %14 = getelementptr inbounds nuw i8, ptr %10, i64 8
  store ptr %0, ptr %14, align 8, !tbaa !10
  %15 = getelementptr inbounds nuw i8, ptr %10, i64 16
  store ptr %9, ptr %15, align 8, !tbaa !10
  tail call void @lean_inc_heartbeat() #7
  %16 = tail call noalias ptr @mi_malloc_small(i64 noundef 24) #7
  %17 = icmp eq ptr %16, null
  br i1 %17, label %18, label %lean_alloc_ctor.exit9

18:                                               ; preds = %lean_alloc_ctor.exit
  tail call void @lean_internal_panic_out_of_memory() #8
  unreachable

lean_alloc_ctor.exit9:                            ; preds = %lean_alloc_ctor.exit
  %19 = getelementptr inbounds nuw i8, ptr %16, i64 4
  store i32 1, ptr %16, align 4, !tbaa !7
  store i32 16908312, ptr %19, align 4
  %20 = getelementptr inbounds nuw i8, ptr %16, i64 8
  store ptr %10, ptr %20, align 8, !tbaa !10
  %21 = getelementptr inbounds nuw i8, ptr %16, i64 16
  store ptr %7, ptr %21, align 8, !tbaa !10
  ret ptr %16
}